; Function Attrs: mustprogress nounwind uwtable
define hidden void @_ZN10LinearScan15append_intervalEP8Interval(ptr noundef nonnull align 8 dereferenceable(256) %0, ptr noundef %1) local_unnamed_addr #0 align 2 {
  %3 = getelementptr inbounds i8, ptr %0, i64 80
  %4 = load i32, ptr %3, align 8
  store i32 %4, ptr %1, align 8
  %5 = getelementptr inbounds i8, ptr %0, i64 84
  %6 = load i32, ptr %5, align 4
  %7 = icmp eq i32 %4, %6
  br i1 %7, label %8, label %_ZN26GrowableArrayWithAllocatorIP8Interval13GrowableArrayIS1_EE6appendERKS1_.exit

8:                                                ; preds = %2
  %9 = add nsw i32 %4, 1
  %10 = icmp sgt i32 %4, -1
  %11 = xor i32 %4, -2147483648
  %12 = and i32 %11, %9
  %13 = icmp eq i32 %12, 0
  %14 = and i1 %10, %13
  %15 = tail call range(i32 0, 33) i32 @llvm.ctlz.i32(i32 %9, i1 true)
  %16 = sub nuw nsw i32 32, %15
  %17 = shl nuw i32 1, %16
  %.0.i.i.i.i = select i1 %14, i32 %9, i32 %17
  tail call void @_ZN26GrowableArrayWithAllocatorIP8Interval13GrowableArrayIS1_EE9expand_toEi(ptr noundef nonnull align 8 dereferenceable(16) %3, i32 noundef %.0.i.i.i.i)
  %.pre.i = load i32, ptr %3, align 8
  br label %_ZN26GrowableArrayWithAllocatorIP8Interval13GrowableArrayIS1_EE6appendERKS1_.exit

_ZN26GrowableArrayWithAllocatorIP8Interval13GrowableArrayIS1_EE6appendERKS1_.exit: ; preds = %2, %8
  %18 = phi i32 [ %.pre.i, %8 ], [ %4, %2 ]
  %19 = add nsw i32 %18, 1
  store i32 %19, ptr %3, align 8
  %20 = getelementptr inbounds i8, ptr %0, i64 88
  %21 = load ptr, ptr %20, align 8
  %22 = sext i32 %18 to i64
  %23 = getelementptr inbounds ptr, ptr %21, i64 %22
  store ptr %1, ptr %23, align 8
  %24 = getelementptr inbounds i8, ptr %0, i64 104
  %25 = load ptr, ptr %24, align 8
  %26 = icmp eq ptr %25, null
  br i1 %26, label %27, label %33

27:                                               ; preds = %_ZN26GrowableArrayWithAllocatorIP8Interval13GrowableArrayIS1_EE6appendERKS1_.exit
  %28 = tail call noundef ptr @_Z23resource_allocate_bytesmN17AllocFailStrategy13AllocFailEnumE(i64 noundef 24, i32 noundef 0) #22
  %29 = tail call noundef ptr @_ZN30GrowableArrayResourceAllocator8allocateEii(i32 noundef 2, i32 noundef 8) #22
  store i32 0, ptr %28, align 4
  %30 = getelementptr inbounds i8, ptr %28, i64 4
  store i32 2, ptr %30, align 4
  %31 = getelementptr inbounds i8, ptr %28, i64 8
  store ptr %29, ptr %31, align 8
  tail call void @llvm.memset.p0.i64(ptr noundef nonnull align 8 dereferenceable(16) %29, i8 0, i64 16, i1 false)
  %32 = getelementptr inbounds i8, ptr %28, i64 16
  store i64 0, ptr %32, align 8
  store ptr %28, ptr %24, align 8
  br label %33

33:                                               ; preds = %27, %_ZN26GrowableArrayWithAllocatorIP8Interval13GrowableArrayIS1_EE6appendERKS1_.exit
  %.0 = phi ptr [ %28, %27 ], [ %25, %_ZN26GrowableArrayWithAllocatorIP8Interval13GrowableArrayIS1_EE6appendERKS1_.exit ]
  %34 = load i32, ptr %.0, align 8
  %35 = getelementptr inbounds i8, ptr %.0, i64 4
  %36 = load i32, ptr %35, align 4
  %37 = icmp eq i32 %34, %36
  br i1 %37, label %38, label %_ZN26GrowableArrayWithAllocatorIP8Interval13GrowableArrayIS1_EE6appendERKS1_.exit6

38:                                               ; preds = %33
  %39 = add nsw i32 %34, 1
  %40 = icmp sgt i32 %34, -1
  %41 = xor i32 %34, -2147483648
  %42 = and i32 %41, %39
  %43 = icmp eq i32 %42, 0
  %44 = and i1 %40, %43
  %45 = tail call range(i32 0, 33) i32 @llvm.ctlz.i32(i32 %39, i1 true)
  %46 = sub nuw nsw i32 32, %45
  %47 = shl nuw i32 1, %46
  %.0.i.i.i.i4 = select i1 %44, i32 %39, i32 %47
  tail call void @_ZN26GrowableArrayWithAllocatorIP8Interval13GrowableArrayIS1_EE9expand_toEi(ptr noundef nonnull align 8 dereferenceable(16) %.0, i32 noundef %.0.i.i.i.i4)
  %.pre.i5 = load i32, ptr %.0, align 8
  br label %_ZN26GrowableArrayWithAllocatorIP8Interval13GrowableArrayIS1_EE6appendERKS1_.exit6

_ZN26GrowableArrayWithAllocatorIP8Interval13GrowableArrayIS1_EE6appendERKS1_.exit6: ; preds = %33, %38
  %48 = phi i32 [ %.pre.i5, %38 ], [ %34, %33 ]
  %49 = add nsw i32 %48, 1
  store i32 %49, ptr %.0, align 8
  %50 = getelementptr inbounds i8, ptr %.0, i64 8
  %51 = load ptr, ptr %50, align 8
  %52 = sext i32 %48 to i64
  %53 = getelementptr inbounds ptr, ptr %51, i64 %52
  store ptr %1, ptr %53, align 8
  ret void
}